target datalayout = "e-m:e-p270:32:32-p271:32:32-p272:64:64-i64:64-i128:128-f80:128-n8:16:32:64-S128"
target triple = "x86_64-pc-linux-gnu"

%struct.stat = type { i64, i64, i64, i32, i32, i32, i32, i64, i64, i64, i64, %struct.timespec, %struct.timespec, %struct.timespec, [3 x i64] }
%struct.timespec = type { i64, i64 }

; Function Attrs: nounwind sspstrong uwtable
define hidden i32 @ruby_is_fd_loadable(i32 noundef %0) #0 {
  %2 = alloca i32, align 4
  %3 = alloca i32, align 4
  %4 = alloca %struct.stat, align 8
  %5 = alloca i32, align 4
  store i32 %0, ptr %3, align 4, !tbaa !11
  call void @llvm.lifetime.start.p0(i64 144, ptr %4) #24
  %6 = load i32, ptr %3, align 4, !tbaa !11
  %7 = call i32 @fstat(i32 noundef %6, ptr noundef %4) #24
  %8 = icmp slt i32 %7, 0
  br i1 %8, label %9, label %10

9:                                                ; preds = %1
  store i32 0, ptr %2, align 4
  store i32 1, ptr %5, align 4
  br label %37

10:                                               ; preds = %1
  %11 = getelementptr inbounds nuw %struct.stat, ptr %4, i32 0, i32 3
  %12 = load i32, ptr %11, align 8, !tbaa !33
  %13 = and i32 %12, 61440
  %14 = icmp eq i32 %13, 32768
  br i1 %14, label %15, label %16

15:                                               ; preds = %10
  store i32 1, ptr %2, align 4
  store i32 1, ptr %5, align 4
  br label %37

16:                                               ; preds = %10
  %17 = getelementptr inbounds nuw %struct.stat, ptr %4, i32 0, i32 3
  %18 = load i32, ptr %17, align 8, !tbaa !33
  %19 = and i32 %18, 61440
  %20 = icmp eq i32 %19, 4096
  br i1 %20, label %26, label %21

21:                                               ; preds = %16
  %22 = getelementptr inbounds nuw %struct.stat, ptr %4, i32 0, i32 3
  %23 = load i32, ptr %22, align 8, !tbaa !33
  %24 = and i32 %23, 61440
  %25 = icmp eq i32 %24, 8192
  br i1 %25, label %26, label %27

26:                                               ; preds = %21, %16
  store i32 -1, ptr %2, align 4
  store i32 1, ptr %5, align 4
  br label %37

27:                                               ; preds = %21
  %28 = getelementptr inbounds nuw %struct.stat, ptr %4, i32 0, i32 3
  %29 = load i32, ptr %28, align 8, !tbaa !33
  %30 = and i32 %29, 61440
  %31 = icmp eq i32 %30, 16384
  br i1 %31, label %32, label %34

32:                                               ; preds = %27
  %33 = call ptr @rb_errno_ptr()
  store i32 21, ptr %33, align 4, !tbaa !11
  br label %36

34:                                               ; preds = %27
  %35 = call ptr @rb_errno_ptr()
  store i32 6, ptr %35, align 4, !tbaa !11
  br label %36

36:                                               ; preds = %34, %32
  store i32 0, ptr %2, align 4
  store i32 1, ptr %5, align 4
  br label %37

37:                                               ; preds = %36, %26, %15, %9
  call void @llvm.lifetime.end.p0(i64 144, ptr %4) #24
  %38 = load i32, ptr %2, align 4
  ret i32 %38
}