; Function Attrs: nounwind sspstrong uwtable
define hidden range(i32 -1, 2) i32 @ruby_is_fd_loadable(i32 noundef %0) local_unnamed_addr #0 {
  %2 = alloca %struct.stat, align 8
  call void @llvm.lifetime.start.p0(i64 144, ptr nonnull %2) #22
  %3 = call i32 @fstat(i32 noundef %0, ptr noundef nonnull %2) #22
  %4 = icmp slt i32 %3, 0
  br i1 %4, label %16, label %5

5:                                                ; preds = %1
  %6 = getelementptr inbounds nuw i8, ptr %2, i64 24
  %7 = load i32, ptr %6, align 8, !tbaa !180
  %8 = and i32 %7, 61440
  %9 = add nsw i32 %8, -4096
  %10 = lshr exact i32 %9, 12
  switch i32 %10, label %14 [
    i32 7, label %16
    i32 0, label %11
    i32 1, label %11
    i32 3, label %12
  ]

11:                                               ; preds = %5, %5
  br label %16

12:                                               ; preds = %5
  %13 = tail call ptr @rb_errno_ptr() #22
  store i32 21, ptr %13, align 4, !tbaa !26
  br label %16

14:                                               ; preds = %5
  %15 = tail call ptr @rb_errno_ptr() #22
  store i32 6, ptr %15, align 4, !tbaa !26
  br label %16

16:                                               ; preds = %12, %14, %5, %1, %11
  %.0 = phi i32 [ -1, %11 ], [ 0, %1 ], [ 1, %5 ], [ 0, %14 ], [ 0, %12 ]
  call void @llvm.lifetime.end.p0(i64 144, ptr nonnull %2) #22
  ret i32 %.0
}